(lp0
(dp1
S'compositeClass0'
p2
S'integerVectorSymmetricRangeMutations'
p3
sS'randomSeed'
p4
S'46900213'
p5
sS'probabilityOfMutatingClass0'
p6
F0.2
sa(dp7
g2
g3
sg4
S'13575928'
p8
sg6
F0.2
sa(dp9
g2
g3
sg4
S'31892724'
p10
sg6
F0.2
sa(dp11
g2
g3
sg4
S'17050363'
p12
sg6
F0.2
sa(dp13
g2
g3
sg4
S'7939298'
p14
sg6
F0.2
sa(dp15
g2
g3
sg4
S'48718401'
p16
sg6
F0.2
sa(dp17
g2
g3
sg4
S'28654039'
p18
sg6
F0.2
sa(dp19
g2
g3
sg4
S'40580578'
p20
sg6
F0.2
sa(dp21
g2
g3
sg4
S'4208972'
p22
sg6
F0.2
sa(dp23
g2
g3
sg4
S'20797072'
p24
sg6
F0.2
sa(dp25
g2
g3
sg4
S'12980072'
p26
sg6
F0.2
sa(dp27
g2
g3
sg4
S'49188215'
p28
sg6
F0.2
sa(dp29
g2
g3
sg4
S'10052855'
p30
sg6
F0.2
sa(dp31
g2
g3
sg4
S'41749329'
p32
sg6
F0.2
sa(dp33
g2
g3
sg4
S'33132716'
p34
sg6
F0.2
sa(dp35
g2
g3
sg4
S'22954804'
p36
sg6
F0.2
sa(dp37
g2
g3
sg4
S'24608407'
p38
sg6
F0.2
sa(dp39
g2
g3
sg4
S'12302943'
p40
sg6
F0.2
sa(dp41
g2
g3
sg4
S'24158716'
p42
sg6
F0.2
sa(dp43
g2
g3
sg4
S'1626865'
p44
sg6
F0.2
sa(dp45
g2
g3
sg4
S'28062848'
p46
sg6
F0.2
sa(dp47
g2
g3
sg4
S'23863729'
p48
sg6
F0.2
sa(dp49
g2
g3
sg4
S'21768908'
p50
sg6
F0.2
sa(dp51
g2
g3
sg4
S'12523837'
p52
sg6
F0.2
sa(dp53
g2
g3
sg4
S'26750285'
p54
sg6
F0.2
sa(dp55
g2
g3
sg4
S'19133628'
p56
sg6
F0.2
sa(dp57
g2
g3
sg4
S'47032029'
p58
sg6
F0.2
sa(dp59
g2
g3
sg4
S'10091315'
p60
sg6
F0.2
sa(dp61
g2
g3
sg4
S'22873030'
p62
sg6
F0.2
sa(dp63
g2
g3
sg4
S'27032765'
p64
sg6
F0.2
sa(dp65
g2
g3
sg4
S'9166097'
p66
sg6
F0.2
sa(dp67
g2
g3
sg4
S'29996049'
p68
sg6
F0.2
sa(dp69
g2
g3
sg4
S'2528965'
p70
sg6
F0.2
sa(dp71
g2
g3
sg4
S'16872388'
p72
sg6
F0.2
sa(dp73
g2
g3
sg4
S'11926573'
p74
sg6
F0.2
sa(dp75
g2
g3
sg4
S'49803406'
p76
sg6
F0.2
sa(dp77
g2
g3
sg4
S'32408313'
p78
sg6
F0.2
sa(dp79
g2
g3
sg4
S'3456685'
p80
sg6
F0.2
sa(dp81
g2
g3
sg4
S'31457934'
p82
sg6
F0.2
sa(dp83
g2
g3
sg4
S'35232041'
p84
sg6
F0.2
sa(dp85
g2
g3
sg4
S'31765591'
p86
sg6
F0.2
sa(dp87
g2
g3
sg4
S'49037565'
p88
sg6
F0.2
sa(dp89
g2
g3
sg4
S'15005830'
p90
sg6
F0.2
sa(dp91
g2
g3
sg4
S'28306222'
p92
sg6
F0.2
sa(dp93
g2
g3
sg4
S'127553'
p94
sg6
F0.2
sa(dp95
g2
g3
sg4
S'28289569'
p96
sg6
F0.2
sa(dp97
g2
g3
sg4
S'11615996'
p98
sg6
F0.2
sa(dp99
g2
g3
sg4
S'26846899'
p100
sg6
F0.2
sa(dp101
g2
g3
sg4
S'40055728'
p102
sg6
F0.2
sa(dp103
g2
g3
sg4
S'30815376'
p104
sg6
F0.2
sa(dp105
g2
g3
sg4
S'21067255'
p106
sg6
F0.2
sa(dp107
g2
g3
sg4
S'44142084'
p108
sg6
F0.2
sa(dp109
g2
g3
sg4
S'29813190'
p110
sg6
F0.2
sa(dp111
g2
g3
sg4
S'19505993'
p112
sg6
F0.2
sa(dp113
g2
g3
sg4
S'43415006'
p114
sg6
F0.2
sa(dp115
g2
g3
sg4
S'23216104'
p116
sg6
F0.2
sa(dp117
g2
g3
sg4
S'15903405'
p118
sg6
F0.2
sa(dp119
g2
g3
sg4
S'21915896'
p120
sg6
F0.2
sa(dp121
g2
g3
sg4
S'29978282'
p122
sg6
F0.2
sa(dp123
g2
g3
sg4
S'7613318'
p124
sg6
F0.2
sa(dp125
g2
g3
sg4
S'48071262'
p126
sg6
F0.2
sa(dp127
g2
g3
sg4
S'5149884'
p128
sg6
F0.2
sa(dp129
g2
g3
sg4
S'46722756'
p130
sg6
F0.2
sa(dp131
g2
g3
sg4
S'4378015'
p132
sg6
F0.2
sa(dp133
g2
g3
sg4
S'25134903'
p134
sg6
F0.2
sa(dp135
g2
g3
sg4
S'48110948'
p136
sg6
F0.2
sa(dp137
g2
g3
sg4
S'9844206'
p138
sg6
F0.2
sa(dp139
g2
g3
sg4
S'23742398'
p140
sg6
F0.2
sa(dp141
g2
g3
sg4
S'8354298'
p142
sg6
F0.2
sa(dp143
g2
g3
sg4
S'49461390'
p144
sg6
F0.2
sa(dp145
g2
g3
sg4
S'36397472'
p146
sg6
F0.2
sa(dp147
g2
g3
sg4
S'24431106'
p148
sg6
F0.2
sa(dp149
g2
g3
sg4
S'8154515'
p150
sg6
F0.2
sa(dp151
g2
g3
sg4
S'26105215'
p152
sg6
F0.2
sa(dp153
g2
g3
sg4
S'26999921'
p154
sg6
F0.2
sa(dp155
g2
g3
sg4
S'40948072'
p156
sg6
F0.2
sa(dp157
g2
g3
sg4
S'5009897'
p158
sg6
F0.2
sa(dp159
g2
g3
sg4
S'29215964'
p160
sg6
F0.2
sa(dp161
g2
g3
sg4
S'5115076'
p162
sg6
F0.2
sa(dp163
g2
g3
sg4
S'11596602'
p164
sg6
F0.2
sa(dp165
g2
g3
sg4
S'22385287'
p166
sg6
F0.2
sa(dp167
g2
g3
sg4
S'6317122'
p168
sg6
F0.2
sa(dp169
g2
g3
sg4
S'23363242'
p170
sg6
F0.2
sa(dp171
g2
g3
sg4
S'5821048'
p172
sg6
F0.2
sa(dp173
g2
g3
sg4
S'19298703'
p174
sg6
F0.2
sa(dp175
g2
g3
sg4
S'38603274'
p176
sg6
F0.2
sa(dp177
g2
g3
sg4
S'22825365'
p178
sg6
F0.2
sa(dp179
g2
g3
sg4
S'928832'
p180
sg6
F0.2
sa(dp181
g2
g3
sg4
S'45005468'
p182
sg6
F0.2
sa(dp183
g2
g3
sg4
S'29623878'
p184
sg6
F0.2
sa(dp185
g2
g3
sg4
S'26740975'
p186
sg6
F0.2
sa(dp187
g2
g3
sg4
S'23514832'
p188
sg6
F0.2
sa(dp189
g2
g3
sg4
S'20362241'
p190
sg6
F0.2
sa(dp191
g2
g3
sg4
S'5822869'
p192
sg6
F0.2
sa(dp193
g2
g3
sg4
S'19754289'
p194
sg6
F0.2
sa(dp195
g2
g3
sg4
S'4498132'
p196
sg6
F0.2
sa(dp197
g2
g3
sg4
S'33484147'
p198
sg6
F0.2
sa(dp199
g2
g3
sg4
S'22306482'
p200
sg6
F0.2
sa(dp201
g2
g3
sg4
S'40241004'
p202
sg6
F0.2
sa(dp203
g2
g3
sg4
S'33713981'
p204
sg6
F0.2
sa(dp205
g2
S'integerVectorRandomJumps'
p206
sg4
S'776116'
p207
sg6
F0.2
sa(dp208
g2
g206
sg4
S'14514173'
p209
sg6
F0.2
sa(dp210
g2
g206
sg4
S'10249025'
p211
sg6
F0.2
sa(dp212
g2
g206
sg4
S'42907200'
p213
sg6
F0.2
sa(dp214
g2
g206
sg4
S'9750210'
p215
sg6
F0.2
sa(dp216
g2
g206
sg4
S'44567153'
p217
sg6
F0.2
sa(dp218
g2
g206
sg4
S'45228552'
p219
sg6
F0.2
sa(dp220
g2
g206
sg4
S'11365776'
p221
sg6
F0.2
sa(dp222
g2
g206
sg4
S'7948378'
p223
sg6
F0.2
sa(dp224
g2
g206
sg4
S'1311334'
p225
sg6
F0.2
sa(dp226
g2
g206
sg4
S'39526808'
p227
sg6
F0.2
sa(dp228
g2
g206
sg4
S'44048110'
p229
sg6
F0.2
sa(dp230
g2
g206
sg4
S'7072145'
p231
sg6
F0.2
sa(dp232
g2
g206
sg4
S'11561195'
p233
sg6
F0.2
sa(dp234
g2
g206
sg4
S'2815816'
p235
sg6
F0.2
sa(dp236
g2
g206
sg4
S'960269'
p237
sg6
F0.2
sa(dp238
g2
g206
sg4
S'40091020'
p239
sg6
F0.2
sa(dp240
g2
g206
sg4
S'45207490'
p241
sg6
F0.2
sa(dp242
g2
g206
sg4
S'23939076'
p243
sg6
F0.2
sa(dp244
g2
g206
sg4
S'18660917'
p245
sg6
F0.2
sa(dp246
g2
g206
sg4
S'38513790'
p247
sg6
F0.2
sa(dp248
g2
g206
sg4
S'21819067'
p249
sg6
F0.2
sa(dp250
g2
g206
sg4
S'29690787'
p251
sg6
F0.2
sa(dp252
g2
g206
sg4
S'31329924'
p253
sg6
F0.2
sa(dp254
g2
g206
sg4
S'41773560'
p255
sg6
F0.2
sa(dp256
g2
g206
sg4
S'3368507'
p257
sg6
F0.2
sa(dp258
g2
g206
sg4
S'7417867'
p259
sg6
F0.2
sa(dp260
g2
g206
sg4
S'19382469'
p261
sg6
F0.2
sa(dp262
g2
g206
sg4
S'23200713'
p263
sg6
F0.2
sa(dp264
g2
g206
sg4
S'7181123'
p265
sg6
F0.2
sa(dp266
g2
g206
sg4
S'42974289'
p267
sg6
F0.2
sa(dp268
g2
g206
sg4
S'45320067'
p269
sg6
F0.2
sa(dp270
g2
g206
sg4
S'10828719'
p271
sg6
F0.2
sa(dp272
g2
g206
sg4
S'46913233'
p273
sg6
F0.2
sa(dp274
g2
g206
sg4
S'45778529'
p275
sg6
F0.2
sa(dp276
g2
g206
sg4
S'48188676'
p277
sg6
F0.2
sa(dp278
g2
g206
sg4
S'8838619'
p279
sg6
F0.2
sa(dp280
g2
g206
sg4
S'41889331'
p281
sg6
F0.2
sa(dp282
g2
g206
sg4
S'21210609'
p283
sg6
F0.2
sa(dp284
g2
g206
sg4
S'34816725'
p285
sg6
F0.2
sa(dp286
g2
g206
sg4
S'1046894'
p287
sg6
F0.2
sa(dp288
g2
g206
sg4
S'45223244'
p289
sg6
F0.2
sa(dp290
g2
g206
sg4
S'7790485'
p291
sg6
F0.2
sa(dp292
g2
g206
sg4
S'15793054'
p293
sg6
F0.2
sa(dp294
g2
g206
sg4
S'45543806'
p295
sg6
F0.2
sa(dp296
g2
g206
sg4
S'31631553'
p297
sg6
F0.2
sa(dp298
g2
g206
sg4
S'47334835'
p299
sg6
F0.2
sa(dp300
g2
g206
sg4
S'48951244'
p301
sg6
F0.2
sa(dp302
g2
g206
sg4
S'3101965'
p303
sg6
F0.2
sa(dp304
g2
g206
sg4
S'27015702'
p305
sg6
F0.2
sa(dp306
g2
g206
sg4
S'48522630'
p307
sg6
F0.2
sa(dp308
g2
g206
sg4
S'1570924'
p309
sg6
F0.2
sa(dp310
g2
g206
sg4
S'24501993'
p311
sg6
F0.2
sa(dp312
g2
g206
sg4
S'36522860'
p313
sg6
F0.2
sa(dp314
g2
g206
sg4
S'28361467'
p315
sg6
F0.2
sa(dp316
g2
g206
sg4
S'7689435'
p317
sg6
F0.2
sa(dp318
g2
g206
sg4
S'23561220'
p319
sg6
F0.2
sa(dp320
g2
g206
sg4
S'17862613'
p321
sg6
F0.2
sa(dp322
g2
g206
sg4
S'36338591'
p323
sg6
F0.2
sa(dp324
g2
g206
sg4
S'19311425'
p325
sg6
F0.2
sa(dp326
g2
g206
sg4
S'13507369'
p327
sg6
F0.2
sa(dp328
g2
g206
sg4
S'31687111'
p329
sg6
F0.2
sa(dp330
g2
g206
sg4
S'34842046'
p331
sg6
F0.2
sa(dp332
g2
g206
sg4
S'16893042'
p333
sg6
F0.2
sa(dp334
g2
g206
sg4
S'16377594'
p335
sg6
F0.2
sa(dp336
g2
g206
sg4
S'30566026'
p337
sg6
F0.2
sa(dp338
g2
g206
sg4
S'49900245'
p339
sg6
F0.2
sa(dp340
g2
g206
sg4
S'48044399'
p341
sg6
F0.2
sa(dp342
g2
g206
sg4
S'7638529'
p343
sg6
F0.2
sa(dp344
g2
g206
sg4
S'2824071'
p345
sg6
F0.2
sa(dp346
g2
g206
sg4
S'8975296'
p347
sg6
F0.2
sa(dp348
g2
g206
sg4
S'2770761'
p349
sg6
F0.2
sa(dp350
g2
g206
sg4
S'29759962'
p351
sg6
F0.2
sa(dp352
g2
g206
sg4
S'49940901'
p353
sg6
F0.2
sa(dp354
g2
g206
sg4
S'28478348'
p355
sg6
F0.2
sa(dp356
g2
g206
sg4
S'30872116'
p357
sg6
F0.2
sa(dp358
g2
g206
sg4
S'6164246'
p359
sg6
F0.2
sa(dp360
g2
g206
sg4
S'3303984'
p361
sg6
F0.2
sa(dp362
g2
g206
sg4
S'40876247'
p363
sg6
F0.2
sa(dp364
g2
g206
sg4
S'12849253'
p365
sg6
F0.2
sa(dp366
g2
g206
sg4
S'48285919'
p367
sg6
F0.2
sa(dp368
g2
g206
sg4
S'41208565'
p369
sg6
F0.2
sa(dp370
g2
g206
sg4
S'12357967'
p371
sg6
F0.2
sa(dp372
g2
g206
sg4
S'13921860'
p373
sg6
F0.2
sa(dp374
g2
g206
sg4
S'43725927'
p375
sg6
F0.2
sa(dp376
g2
g206
sg4
S'11578405'
p377
sg6
F0.2
sa(dp378
g2
g206
sg4
S'13489283'
p379
sg6
F0.2
sa(dp380
g2
g206
sg4
S'47820461'
p381
sg6
F0.2
sa(dp382
g2
g206
sg4
S'5241284'
p383
sg6
F0.2
sa(dp384
g2
g206
sg4
S'45400005'
p385
sg6
F0.2
sa(dp386
g2
g206
sg4
S'38005125'
p387
sg6
F0.2
sa(dp388
g2
g206
sg4
S'767525'
p389
sg6
F0.2
sa(dp390
g2
g206
sg4
S'45282628'
p391
sg6
F0.2
sa(dp392
g2
g206
sg4
S'37646826'
p393
sg6
F0.2
sa(dp394
g2
g206
sg4
S'39227894'
p395
sg6
F0.2
sa(dp396
g2
g206
sg4
S'15324405'
p397
sg6
F0.2
sa(dp398
g2
g206
sg4
S'33095345'
p399
sg6
F0.2
sa(dp400
g2
g206
sg4
S'20495247'
p401
sg6
F0.2
sa(dp402
g2
g206
sg4
S'33413482'
p403
sg6
F0.2
sa(dp404
g2
g206
sg4
S'45363917'
p405
sg6
F0.2
sa(dp406
g2
g3
sg4
S'11193806'
p407
sg6
F0.0
sa(dp408
g2
g3
sg4
S'38329568'
p409
sg6
F0.0
sa(dp410
g2
g3
sg4
S'13718041'
p411
sg6
F0.0
sa(dp412
g2
g3
sg4
S'41261485'
p413
sg6
F0.0
sa(dp414
g2
g3
sg4
S'17721938'
p415
sg6
F0.0
sa(dp416
g2
g3
sg4
S'21713801'
p417
sg6
F0.0
sa(dp418
g2
g3
sg4
S'16812549'
p419
sg6
F0.0
sa(dp420
g2
g3
sg4
S'49747557'
p421
sg6
F0.0
sa(dp422
g2
g3
sg4
S'12311190'
p423
sg6
F0.0
sa(dp424
g2
g3
sg4
S'26540172'
p425
sg6
F0.0
sa(dp426
g2
g3
sg4
S'1090582'
p427
sg6
F0.0
sa(dp428
g2
g3
sg4
S'29168168'
p429
sg6
F0.0
sa(dp430
g2
g3
sg4
S'27224940'
p431
sg6
F0.0
sa(dp432
g2
g3
sg4
S'2872594'
p433
sg6
F0.0
sa(dp434
g2
g3
sg4
S'18511462'
p435
sg6
F0.0
sa(dp436
g2
g3
sg4
S'31947334'
p437
sg6
F0.0
sa(dp438
g2
g3
sg4
S'45758724'
p439
sg6
F0.0
sa(dp440
g2
g3
sg4
S'2538264'
p441
sg6
F0.0
sa(dp442
g2
g3
sg4
S'45262239'
p443
sg6
F0.0
sa(dp444
g2
g3
sg4
S'44772128'
p445
sg6
F0.0
sa(dp446
g2
g3
sg4
S'13127772'
p447
sg6
F0.0
sa(dp448
g2
g3
sg4
S'26368379'
p449
sg6
F0.0
sa(dp450
g2
g3
sg4
S'24090586'
p451
sg6
F0.0
sa(dp452
g2
g3
sg4
S'39447901'
p453
sg6
F0.0
sa(dp454
g2
g3
sg4
S'27274666'
p455
sg6
F0.0
sa(dp456
g2
g3
sg4
S'33432975'
p457
sg6
F0.0
sa(dp458
g2
g3
sg4
S'35112706'
p459
sg6
F0.0
sa(dp460
g2
g3
sg4
S'47764931'
p461
sg6
F0.0
sa(dp462
g2
g3
sg4
S'5184230'
p463
sg6
F0.0
sa(dp464
g2
g3
sg4
S'9015736'
p465
sg6
F0.0
sa(dp466
g2
g3
sg4
S'7796448'
p467
sg6
F0.0
sa(dp468
g2
g3
sg4
S'18148109'
p469
sg6
F0.0
sa(dp470
g2
g3
sg4
S'14273375'
p471
sg6
F0.0
sa(dp472
g2
g3
sg4
S'20127222'
p473
sg6
F0.0
sa(dp474
g2
g3
sg4
S'23678393'
p475
sg6
F0.0
sa(dp476
g2
g3
sg4
S'33928718'
p477
sg6
F0.0
sa(dp478
g2
g3
sg4
S'17418424'
p479
sg6
F0.0
sa(dp480
g2
g3
sg4
S'49597391'
p481
sg6
F0.0
sa(dp482
g2
g3
sg4
S'20865877'
p483
sg6
F0.0
sa(dp484
g2
g3
sg4
S'30940811'
p485
sg6
F0.0
sa(dp486
g2
g3
sg4
S'6269146'
p487
sg6
F0.0
sa(dp488
g2
g3
sg4
S'31430968'
p489
sg6
F0.0
sa(dp490
g2
g3
sg4
S'2979236'
p491
sg6
F0.0
sa(dp492
g2
g3
sg4
S'46717840'
p493
sg6
F0.0
sa(dp494
g2
g3
sg4
S'27181134'
p495
sg6
F0.0
sa(dp496
g2
g3
sg4
S'5353929'
p497
sg6
F0.0
sa(dp498
g2
g3
sg4
S'22386911'
p499
sg6
F0.0
sa(dp500
g2
g3
sg4
S'44670629'
p501
sg6
F0.0
sa(dp502
g2
g3
sg4
S'36482188'
p503
sg6
F0.0
sa(dp504
g2
g3
sg4
S'22134914'
p505
sg6
F0.0
sa(dp506
g2
g3
sg4
S'35740689'
p507
sg6
F0.0
sa(dp508
g2
g3
sg4
S'26453548'
p509
sg6
F0.0
sa(dp510
g2
g3
sg4
S'38098156'
p511
sg6
F0.0
sa(dp512
g2
g3
sg4
S'12714350'
p513
sg6
F0.0
sa(dp514
g2
g3
sg4
S'12012378'
p515
sg6
F0.0
sa(dp516
g2
g3
sg4
S'18496030'
p517
sg6
F0.0
sa(dp518
g2
g3
sg4
S'9908044'
p519
sg6
F0.0
sa(dp520
g2
g3
sg4
S'23918340'
p521
sg6
F0.0
sa(dp522
g2
g3
sg4
S'33153292'
p523
sg6
F0.0
sa(dp524
g2
g3
sg4
S'11949896'
p525
sg6
F0.0
sa(dp526
g2
g3
sg4
S'25775625'
p527
sg6
F0.0
sa(dp528
g2
g3
sg4
S'30298443'
p529
sg6
F0.0
sa(dp530
g2
g3
sg4
S'17379658'
p531
sg6
F0.0
sa(dp532
g2
g3
sg4
S'44428891'
p533
sg6
F0.0
sa(dp534
g2
g3
sg4
S'23099917'
p535
sg6
F0.0
sa(dp536
g2
g3
sg4
S'5933570'
p537
sg6
F0.0
sa(dp538
g2
g3
sg4
S'47705120'
p539
sg6
F0.0
sa(dp540
g2
g3
sg4
S'1571091'
p541
sg6
F0.0
sa(dp542
g2
g3
sg4
S'39112510'
p543
sg6
F0.0
sa(dp544
g2
g3
sg4
S'31003916'
p545
sg6
F0.0
sa(dp546
g2
g3
sg4
S'3373261'
p547
sg6
F0.0
sa(dp548
g2
g3
sg4
S'45813624'
p549
sg6
F0.0
sa(dp550
g2
g3
sg4
S'13842694'
p551
sg6
F0.0
sa(dp552
g2
g3
sg4
S'21430216'
p553
sg6
F0.0
sa(dp554
g2
g3
sg4
S'9232598'
p555
sg6
F0.0
sa(dp556
g2
g3
sg4
S'35845705'
p557
sg6
F0.0
sa(dp558
g2
g3
sg4
S'171732'
p559
sg6
F0.0
sa(dp560
g2
g3
sg4
S'31345429'
p561
sg6
F0.0
sa(dp562
g2
g3
sg4
S'19022999'
p563
sg6
F0.0
sa(dp564
g2
g3
sg4
S'12855133'
p565
sg6
F0.0
sa(dp566
g2
g3
sg4
S'23883192'
p567
sg6
F0.0
sa(dp568
g2
g3
sg4
S'4648923'
p569
sg6
F0.0
sa(dp570
g2
g3
sg4
S'17537481'
p571
sg6
F0.0
sa(dp572
g2
g3
sg4
S'32851528'
p573
sg6
F0.0
sa(dp574
g2
g3
sg4
S'30305423'
p575
sg6
F0.0
sa(dp576
g2
g3
sg4
S'41568846'
p577
sg6
F0.0
sa(dp578
g2
g3
sg4
S'423535'
p579
sg6
F0.0
sa(dp580
g2
g3
sg4
S'21671507'
p581
sg6
F0.0
sa(dp582
g2
g3
sg4
S'26792873'
p583
sg6
F0.0
sa(dp584
g2
g3
sg4
S'35762548'
p585
sg6
F0.0
sa(dp586
g2
g3
sg4
S'11490789'
p587
sg6
F0.0
sa(dp588
g2
g3
sg4
S'4499562'
p589
sg6
F0.0
sa(dp590
g2
g3
sg4
S'45701397'
p591
sg6
F0.0
sa(dp592
g2
g3
sg4
S'41432067'
p593
sg6
F0.0
sa(dp594
g2
g3
sg4
S'23862175'
p595
sg6
F0.0
sa(dp596
g2
g3
sg4
S'6202403'
p597
sg6
F0.0
sa(dp598
g2
g3
sg4
S'25078375'
p599
sg6
F0.0
sa(dp600
g2
g3
sg4
S'13812258'
p601
sg6
F0.0
sa(dp602
g2
g3
sg4
S'6554694'
p603
sg6
F0.0
sa(dp604
g2
g3
sg4
S'19921290'
p605
sg6
F0.0
sa.